target datalayout = "e-m:e-p270:32:32-p271:32:32-p272:64:64-i64:64-i128:128-f80:128-n8:16:32:64-S128"
target triple = "x86_64-pc-linux-gnu"

%struct.strvec = type { ptr, i64, i64 }
%struct.child_process = type { %struct.strvec, %struct.strvec, i32, i32, i64, ptr, ptr, i32, i32, i32, ptr, i16, ptr }

@.str.1 = private unnamed_addr constant [19 x i8] c"git-shell-commands\00", align 1
@.str.3 = private unnamed_addr constant [8 x i8] c"shell.c\00", align 1
@.str.12 = private unnamed_addr constant [40 x i8] c"git-shell-commands/no-interactive-login\00", align 1
@.str.13 = private unnamed_addr constant [24 x i8] c"git-shell-commands/help\00", align 1
@stderr = external global ptr, align 8
@.str.14 = private unnamed_addr constant [6 x i8] c"git> \00", align 1
@stdout = external global ptr, align 8
@stdin = external global ptr, align 8
@.str.15 = private unnamed_addr constant [2 x i8] c"\0A\00", align 1
@.str.16 = private unnamed_addr constant [39 x i8] c"invalid command format: input too long\00", align 1
@.str.17 = private unnamed_addr constant [33 x i8] c"invalid command format '%s': %s\0A\00", align 1
@.str.18 = private unnamed_addr constant [1 x i8] zeroinitializer, align 1
@.str.19 = private unnamed_addr constant [5 x i8] c"quit\00", align 1
@.str.20 = private unnamed_addr constant [7 x i8] c"logout\00", align 1
@.str.21 = private unnamed_addr constant [5 x i8] c"exit\00", align 1
@.str.22 = private unnamed_addr constant [4 x i8] c"bye\00", align 1
@.str.23 = private unnamed_addr constant [27 x i8] c"unrecognized command '%s'\0A\00", align 1
@.str.24 = private unnamed_addr constant [29 x i8] c"invalid command format '%s'\0A\00", align 1
@.str.31 = private unnamed_addr constant [3 x i8] c"./\00", align 1
@.str.32 = private unnamed_addr constant [6 x i8] c"%s/%s\00", align 1

; Function Attrs: nounwind uwtable
define internal ptr @make_cmd(ptr noundef %0) #0 {
  %2 = alloca ptr, align 8
  store ptr %0, ptr %2, align 8, !tbaa !11
  %3 = load ptr, ptr %2, align 8, !tbaa !11
  %4 = call ptr (ptr, ...) @xstrfmt(ptr noundef @.str.32, ptr noundef @.str.1, ptr noundef %3)
  ret ptr %4
}

; Function Attrs: nounwind uwtable
define internal i32 @is_valid_cmd_name(ptr noundef %0) #0 {
  %2 = alloca ptr, align 8
  store ptr %0, ptr %2, align 8, !tbaa !11
  %3 = load ptr, ptr %2, align 8, !tbaa !11
  %4 = load ptr, ptr %2, align 8, !tbaa !11
  %5 = call i64 @strcspn(ptr noundef %4, ptr noundef @.str.31) #11
  %6 = getelementptr inbounds nuw i8, ptr %3, i64 %5
  %7 = load i8, ptr %6, align 1, !tbaa !13
  %8 = sext i8 %7 to i32
  %9 = icmp eq i32 %8, 0
  %10 = zext i1 %9 to i32
  ret i32 %10
}

; Function Attrs: nounwind uwtable
define internal void @run_shell() #0 {
  %1 = alloca i32, align 4
  %2 = alloca %struct.child_process, align 8
  %3 = alloca %struct.child_process, align 8
  %4 = alloca i32, align 4
  %5 = alloca ptr, align 8
  %6 = alloca ptr, align 8
  %7 = alloca ptr, align 8
  %8 = alloca i64, align 8
  %9 = alloca ptr, align 8
  %10 = alloca ptr, align 8
  %11 = alloca i32, align 4
  %12 = alloca i32, align 4
  %13 = alloca i32, align 4
  %14 = alloca %struct.child_process, align 8
  call void @llvm.lifetime.start.p0(i64 4, ptr %1) #10
  store i32 0, ptr %1, align 4, !tbaa !4
  call void @llvm.lifetime.start.p0(i64 120, ptr %2) #10
  call void @llvm.memcpy.p0.p0.i64(ptr align 8 %2, ptr align 8 @__const.run_shell.help_cmd, i64 120, i1 false)
  %15 = call i32 @access(ptr noundef @.str.12, i32 noundef 0) #10
  %16 = icmp ne i32 %15, 0
  br i1 %16, label %28, label %17

17:                                               ; preds = %0
  call void @llvm.lifetime.start.p0(i64 120, ptr %3) #10
  call void @llvm.memcpy.p0.p0.i64(ptr align 8 %3, ptr align 8 @__const.run_shell.nologin_cmd, i64 120, i1 false)
  call void @llvm.lifetime.start.p0(i64 4, ptr %4) #10
  %18 = getelementptr inbounds nuw %struct.child_process, ptr %3, i32 0, i32 0
  %19 = call ptr @strvec_push(ptr noundef %18, ptr noundef @.str.12)
  %20 = call i32 @run_command(ptr noundef %3)
  store i32 %20, ptr %4, align 4, !tbaa !4
  %21 = load i32, ptr %4, align 4, !tbaa !4
  %22 = icmp slt i32 %21, 0
  br i1 %22, label %23, label %25

23:                                               ; preds = %17
  %24 = call i32 @common_exit(ptr noundef @.str.3, i32 noundef 64, i32 noundef 127)
  call void @exit(i32 noundef %24) #13
  unreachable

25:                                               ; preds = %17
  %26 = load i32, ptr %4, align 4, !tbaa !4
  %27 = call i32 @common_exit(ptr noundef @.str.3, i32 noundef 65, i32 noundef %26)
  call void @exit(i32 noundef %27) #13
  unreachable

28:                                               ; preds = %0
  %29 = getelementptr inbounds nuw %struct.child_process, ptr %2, i32 0, i32 11
  %30 = load i16, ptr %29, align 8
  %31 = and i16 %30, -17
  %32 = or i16 %31, 16
  store i16 %32, ptr %29, align 8
  %33 = getelementptr inbounds nuw %struct.child_process, ptr %2, i32 0, i32 0
  %34 = call ptr @strvec_push(ptr noundef %33, ptr noundef @.str.13)
  %35 = call i32 @run_command(ptr noundef %2)
  br label %36

36:                                               ; preds = %168, %28
  call void @llvm.lifetime.start.p0(i64 8, ptr %5) #10
  call void @llvm.lifetime.start.p0(i64 8, ptr %6) #10
  call void @llvm.lifetime.start.p0(i64 8, ptr %7) #10
  call void @llvm.lifetime.start.p0(i64 8, ptr %8) #10
  call void @llvm.lifetime.start.p0(i64 8, ptr %9) #10
  call void @llvm.lifetime.start.p0(i64 8, ptr %10) #10
  call void @llvm.lifetime.start.p0(i64 4, ptr %11) #10
  call void @llvm.lifetime.start.p0(i64 4, ptr %12) #10
  %37 = load ptr, ptr @stderr, align 8, !tbaa !21
  %38 = call i32 (ptr, ptr, ...) @fprintf(ptr noundef %37, ptr noundef @.str.14) #10
  %39 = load ptr, ptr @stdout, align 8, !tbaa !21
  %40 = call i32 @fflush(ptr noundef %39)
  %41 = call ptr @xmalloc(i64 noundef 4194304)
  store ptr %41, ptr %7, align 8, !tbaa !11
  %42 = load ptr, ptr %7, align 8, !tbaa !11
  %43 = load ptr, ptr @stdin, align 8, !tbaa !21
  %44 = call ptr @fgets(ptr noundef %42, i32 noundef 4194304, ptr noundef %43)
  %45 = icmp ne ptr %44, null
  br i1 %45, label %50, label %46

46:                                               ; preds = %36
  %47 = load ptr, ptr @stderr, align 8, !tbaa !21
  %48 = call i32 (ptr, ptr, ...) @fprintf(ptr noundef %47, ptr noundef @.str.15) #10
  %49 = load ptr, ptr %7, align 8, !tbaa !11
  call void @free(ptr noundef %49) #10
  store i32 2, ptr %13, align 4
  br label %165

50:                                               ; preds = %36
  %51 = load ptr, ptr %7, align 8, !tbaa !11
  %52 = call i64 @strlen(ptr noundef %51) #11
  store i64 %52, ptr %8, align 8, !tbaa !23
  %53 = load i64, ptr %8, align 8, !tbaa !23
  %54 = icmp uge i64 %53, 4194303
  br i1 %54, label %55, label %56

55:                                               ; preds = %50
  call void (ptr, ...) @die(ptr noundef @.str.16) #12
  unreachable

56:                                               ; preds = %50
  %57 = load i64, ptr %8, align 8, !tbaa !23
  %58 = icmp ugt i64 %57, 0
  br i1 %58, label %59, label %86

59:                                               ; preds = %56
  %60 = load ptr, ptr %7, align 8, !tbaa !11
  %61 = load i64, ptr %8, align 8, !tbaa !23
  %62 = sub i64 %61, 1
  %63 = getelementptr inbounds nuw i8, ptr %60, i64 %62
  %64 = load i8, ptr %63, align 1, !tbaa !13
  %65 = sext i8 %64 to i32
  %66 = icmp eq i32 %65, 10
  br i1 %66, label %67, label %86

67:                                               ; preds = %59
  %68 = load i64, ptr %8, align 8, !tbaa !23
  %69 = add i64 %68, -1
  store i64 %69, ptr %8, align 8, !tbaa !23
  %70 = icmp ugt i64 %69, 0
  br i1 %70, label %71, label %82

71:                                               ; preds = %67
  %72 = load ptr, ptr %7, align 8, !tbaa !11
  %73 = load i64, ptr %8, align 8, !tbaa !23
  %74 = sub i64 %73, 1
  %75 = getelementptr inbounds nuw i8, ptr %72, i64 %74
  %76 = load i8, ptr %75, align 1, !tbaa !13
  %77 = sext i8 %76 to i32
  %78 = icmp eq i32 %77, 13
  br i1 %78, label %79, label %82

79:                                               ; preds = %71
  %80 = load i64, ptr %8, align 8, !tbaa !23
  %81 = add i64 %80, -1
  store i64 %81, ptr %8, align 8, !tbaa !23
  br label %82

82:                                               ; preds = %79, %71, %67
  %83 = load ptr, ptr %7, align 8, !tbaa !11
  %84 = load i64, ptr %8, align 8, !tbaa !23
  %85 = getelementptr inbounds nuw i8, ptr %83, i64 %84
  store i8 0, ptr %85, align 1, !tbaa !13
  br label %86

86:                                               ; preds = %82, %59, %56
  %87 = load ptr, ptr %7, align 8, !tbaa !11
  %88 = call ptr @xstrdup(ptr noundef %87)
  store ptr %88, ptr %9, align 8, !tbaa !11
  %89 = load ptr, ptr %9, align 8, !tbaa !11
  %90 = call i32 @split_cmdline(ptr noundef %89, ptr noundef %10)
  store i32 %90, ptr %12, align 4, !tbaa !4
  %91 = load i32, ptr %12, align 4, !tbaa !4
  %92 = icmp slt i32 %91, 0
  br i1 %92, label %93, label %101

93:                                               ; preds = %86
  %94 = load ptr, ptr @stderr, align 8, !tbaa !21
  %95 = load ptr, ptr %7, align 8, !tbaa !11
  %96 = load i32, ptr %12, align 4, !tbaa !4
  %97 = call ptr @split_cmdline_strerror(i32 noundef %96)
  %98 = call i32 (ptr, ptr, ...) @fprintf(ptr noundef %94, ptr noundef @.str.17, ptr noundef %95, ptr noundef %97) #10
  %99 = load ptr, ptr %9, align 8, !tbaa !11
  call void @free(ptr noundef %99) #10
  %100 = load ptr, ptr %7, align 8, !tbaa !11
  call void @free(ptr noundef %100) #10
  store i32 3, ptr %13, align 4
  br label %165

101:                                              ; preds = %86
  %102 = load ptr, ptr %10, align 8, !tbaa !8
  %103 = getelementptr inbounds ptr, ptr %102, i64 0
  %104 = load ptr, ptr %103, align 8, !tbaa !11
  store ptr %104, ptr %5, align 8, !tbaa !11
  %105 = load ptr, ptr %5, align 8, !tbaa !11
  %106 = call i32 @strcmp(ptr noundef %105, ptr noundef @.str.18) #11
  %107 = icmp ne i32 %106, 0
  br i1 %107, label %109, label %108

108:                                              ; preds = %101
  br label %161

109:                                              ; preds = %101
  %110 = load ptr, ptr %5, align 8, !tbaa !11
  %111 = call i32 @strcmp(ptr noundef %110, ptr noundef @.str.19) #11
  %112 = icmp ne i32 %111, 0
  br i1 %112, label %113, label %125

113:                                              ; preds = %109
  %114 = load ptr, ptr %5, align 8, !tbaa !11
  %115 = call i32 @strcmp(ptr noundef %114, ptr noundef @.str.20) #11
  %116 = icmp ne i32 %115, 0
  br i1 %116, label %117, label %125

117:                                              ; preds = %113
  %118 = load ptr, ptr %5, align 8, !tbaa !11
  %119 = call i32 @strcmp(ptr noundef %118, ptr noundef @.str.21) #11
  %120 = icmp ne i32 %119, 0
  br i1 %120, label %121, label %125

121:                                              ; preds = %117
  %122 = load ptr, ptr %5, align 8, !tbaa !11
  %123 = call i32 @strcmp(ptr noundef %122, ptr noundef @.str.22) #11
  %124 = icmp ne i32 %123, 0
  br i1 %124, label %126, label %125

125:                                              ; preds = %121, %117, %113, %109
  store i32 1, ptr %1, align 4, !tbaa !4
  br label %160

126:                                              ; preds = %121
  %127 = load ptr, ptr %5, align 8, !tbaa !11
  %128 = call i32 @is_valid_cmd_name(ptr noundef %127)
  %129 = icmp ne i32 %128, 0
  br i1 %129, label %130, label %155

130:                                              ; preds = %126
  call void @llvm.lifetime.start.p0(i64 120, ptr %14) #10
  call void @llvm.memcpy.p0.p0.i64(ptr align 8 %14, ptr align 8 @__const.run_shell.cmd, i64 120, i1 false)
  %131 = load ptr, ptr %5, align 8, !tbaa !11
  %132 = call ptr @make_cmd(ptr noundef %131)
  store ptr %132, ptr %6, align 8, !tbaa !11
  %133 = load ptr, ptr %6, align 8, !tbaa !11
  %134 = load ptr, ptr %10, align 8, !tbaa !8
  %135 = getelementptr inbounds ptr, ptr %134, i64 0
  store ptr %133, ptr %135, align 8, !tbaa !11
  %136 = getelementptr inbounds nuw %struct.child_process, ptr %14, i32 0, i32 11
  %137 = load i16, ptr %136, align 8
  %138 = and i16 %137, -17
  %139 = or i16 %138, 16
  store i16 %139, ptr %136, align 8
  %140 = getelementptr inbounds nuw %struct.child_process, ptr %14, i32 0, i32 0
  %141 = load ptr, ptr %10, align 8, !tbaa !8
  call void @strvec_pushv(ptr noundef %140, ptr noundef %141)
  %142 = call i32 @run_command(ptr noundef %14)
  store i32 %142, ptr %11, align 4, !tbaa !4
  %143 = load i32, ptr %11, align 4, !tbaa !4
  %144 = icmp eq i32 %143, -1
  br i1 %144, label %145, label %153

145:                                              ; preds = %130
  %146 = call ptr @__errno_location() #14
  %147 = load i32, ptr %146, align 4, !tbaa !4
  %148 = icmp eq i32 %147, 2
  br i1 %148, label %149, label %153

149:                                              ; preds = %145
  %150 = load ptr, ptr @stderr, align 8, !tbaa !21
  %151 = load ptr, ptr %5, align 8, !tbaa !11
  %152 = call i32 (ptr, ptr, ...) @fprintf(ptr noundef %150, ptr noundef @.str.23, ptr noundef %151) #10
  br label %153

153:                                              ; preds = %149, %145, %130
  %154 = load ptr, ptr %6, align 8, !tbaa !11
  call void @free(ptr noundef %154) #10
  call void @llvm.lifetime.end.p0(i64 120, ptr %14) #10
  br label %159

155:                                              ; preds = %126
  %156 = load ptr, ptr @stderr, align 8, !tbaa !21
  %157 = load ptr, ptr %5, align 8, !tbaa !11
  %158 = call i32 (ptr, ptr, ...) @fprintf(ptr noundef %156, ptr noundef @.str.24, ptr noundef %157) #10
  br label %159

159:                                              ; preds = %155, %153
  br label %160

160:                                              ; preds = %159, %125
  br label %161

161:                                              ; preds = %160, %108
  %162 = load ptr, ptr %10, align 8, !tbaa !8
  call void @free(ptr noundef %162) #10
  %163 = load ptr, ptr %9, align 8, !tbaa !11
  call void @free(ptr noundef %163) #10
  %164 = load ptr, ptr %7, align 8, !tbaa !11
  call void @free(ptr noundef %164) #10
  store i32 0, ptr %13, align 4
  br label %165

165:                                              ; preds = %161, %93, %46
  call void @llvm.lifetime.end.p0(i64 4, ptr %12) #10
  call void @llvm.lifetime.end.p0(i64 4, ptr %11) #10
  call void @llvm.lifetime.end.p0(i64 8, ptr %10) #10
  call void @llvm.lifetime.end.p0(i64 8, ptr %9) #10
  call void @llvm.lifetime.end.p0(i64 8, ptr %8) #10
  call void @llvm.lifetime.end.p0(i64 8, ptr %7) #10
  call void @llvm.lifetime.end.p0(i64 8, ptr %6) #10
  call void @llvm.lifetime.end.p0(i64 8, ptr %5) #10
  %166 = load i32, ptr %13, align 4
  switch i32 %166, label %173 [
    i32 0, label %167
    i32 2, label %172
    i32 3, label %168
  ]

167:                                              ; preds = %165
  br label %168

168:                                              ; preds = %167, %165
  %169 = load i32, ptr %1, align 4, !tbaa !4
  %170 = icmp ne i32 %169, 0
  %171 = xor i1 %170, true
  br i1 %171, label %36, label %172, !llvm.loop !25

172:                                              ; preds = %168, %165
  call void @llvm.lifetime.end.p0(i64 120, ptr %2) #10
  call void @llvm.lifetime.end.p0(i64 4, ptr %1) #10
  ret void

173:                                              ; preds = %165
  unreachable
}