; Function Attrs: nounwind uwtable
define internal fastcc void @run_shell() unnamed_addr #0 {
  %1 = alloca %struct.child_process, align 8
  %2 = alloca %struct.child_process, align 8
  %3 = alloca ptr, align 8
  %4 = alloca %struct.child_process, align 8
  call void @llvm.lifetime.start.p0(i64 120, ptr nonnull %1) #13
  call void @llvm.memcpy.p0.p0.i64(ptr noundef nonnull align 8 dereferenceable(120) %1, ptr noundef nonnull align 8 dereferenceable(120) @__const.run_shell.cmd, i64 120, i1 false)
  %5 = tail call i32 @access(ptr noundef nonnull @.str.12, i32 noundef 0) #13
  %.not = icmp eq i32 %5, 0
  br i1 %.not, label %6, label %14

6:                                                ; preds = %0
  call void @llvm.lifetime.start.p0(i64 120, ptr nonnull %2) #13
  call void @llvm.memcpy.p0.p0.i64(ptr noundef nonnull align 8 dereferenceable(120) %2, ptr noundef nonnull align 8 dereferenceable(120) @__const.run_shell.cmd, i64 120, i1 false)
  %7 = call ptr @strvec_push(ptr noundef nonnull %2, ptr noundef nonnull @.str.12) #13
  %8 = call i32 @run_command(ptr noundef nonnull %2) #13
  %9 = icmp slt i32 %8, 0
  br i1 %9, label %10, label %12

10:                                               ; preds = %6
  %11 = call i32 @common_exit(ptr noundef nonnull @.str.3, i32 noundef 64, i32 noundef 127) #13
  call void @exit(i32 noundef %11) #15
  unreachable

12:                                               ; preds = %6
  %13 = call i32 @common_exit(ptr noundef nonnull @.str.3, i32 noundef 65, i32 noundef %8) #13
  call void @exit(i32 noundef %13) #15
  unreachable

14:                                               ; preds = %0
  %15 = getelementptr inbounds nuw i8, ptr %1, i64 104
  store i16 16, ptr %15, align 8
  %16 = call ptr @strvec_push(ptr noundef nonnull %1, ptr noundef nonnull @.str.13) #13
  %17 = call i32 @run_command(ptr noundef nonnull %1) #13
  %18 = getelementptr inbounds nuw i8, ptr %4, i64 104
  br label %20

.critedge62:                                      ; preds = %55, %85, %84
  %19 = load ptr, ptr %3, align 8, !tbaa !14
  call void @free(ptr noundef %19) #13
  br label %.backedge

20:                                               ; preds = %.backedge, %14
  call void @llvm.lifetime.start.p0(i64 8, ptr nonnull %3) #13
  %21 = load ptr, ptr @stderr, align 8, !tbaa !17
  %22 = call i64 @fwrite(ptr nonnull @.str.14, i64 5, i64 1, ptr %21) #16
  %23 = load ptr, ptr @stdout, align 8, !tbaa !17
  %24 = call i32 @fflush(ptr noundef %23)
  %25 = call ptr @xmalloc(i64 noundef 4194304) #13
  %26 = load ptr, ptr @stdin, align 8, !tbaa !17
  %27 = call ptr @fgets(ptr noundef %25, i32 noundef 4194304, ptr noundef %26)
  %.not44 = icmp eq ptr %27, null
  br i1 %.not44, label %.thread, label %29

.thread:                                          ; preds = %20
  %28 = load ptr, ptr @stderr, align 8, !tbaa !17
  %fputc = call i32 @fputc(i32 10, ptr %28)
  br label %89

29:                                               ; preds = %20
  %30 = call i64 @strlen(ptr noundef nonnull dereferenceable(1) %25) #14
  %31 = icmp ugt i64 %30, 4194302
  br i1 %31, label %32, label %33

32:                                               ; preds = %29
  call void (ptr, ...) @die(ptr noundef nonnull @.str.16) #15
  unreachable

33:                                               ; preds = %29
  %.not45 = icmp eq i64 %30, 0
  br i1 %.not45, label %48, label %34

34:                                               ; preds = %33
  %35 = getelementptr i8, ptr %25, i64 %30
  %36 = getelementptr i8, ptr %35, i64 -1
  %37 = load i8, ptr %36, align 1, !tbaa !9
  %38 = icmp eq i8 %37, 10
  br i1 %38, label %39, label %48

39:                                               ; preds = %34
  %40 = add nsw i64 %30, -1
  %.not46 = icmp eq i64 %40, 0
  br i1 %.not46, label %46, label %41

41:                                               ; preds = %39
  %42 = getelementptr i8, ptr %35, i64 -2
  %43 = load i8, ptr %42, align 1, !tbaa !9
  %44 = icmp eq i8 %43, 13
  %45 = add nsw i64 %30, -2
  %spec.select = select i1 %44, i64 %45, i64 %40
  br label %46

46:                                               ; preds = %41, %39
  %.038 = phi i64 [ 0, %39 ], [ %spec.select, %41 ]
  %47 = getelementptr inbounds nuw i8, ptr %25, i64 %.038
  store i8 0, ptr %47, align 1, !tbaa !9
  br label %48

48:                                               ; preds = %46, %34, %33
  %49 = call ptr @xstrdup(ptr noundef nonnull %25) #13
  %50 = call i32 @split_cmdline(ptr noundef %49, ptr noundef nonnull %3) #13
  %51 = icmp slt i32 %50, 0
  br i1 %51, label %.critedge, label %55

.critedge:                                        ; preds = %48
  %52 = load ptr, ptr @stderr, align 8, !tbaa !17
  %53 = call ptr @split_cmdline_strerror(i32 noundef %50) #13
  %54 = call i32 (ptr, ptr, ...) @fprintf(ptr noundef %52, ptr noundef nonnull @.str.17, ptr noundef nonnull %25, ptr noundef %53) #17
  br label %.backedge

.backedge:                                        ; preds = %.critedge, %.critedge62
  call void @free(ptr noundef %49) #13
  call void @free(ptr noundef nonnull %25) #13
  call void @llvm.lifetime.end.p0(i64 8, ptr nonnull %3) #13
  br label %20

55:                                               ; preds = %48
  %56 = load ptr, ptr %3, align 8, !tbaa !14
  %57 = load ptr, ptr %56, align 8, !tbaa !4
  %strcmpload = load i8, ptr %57, align 1
  %.not47 = icmp eq i8 %strcmpload, 0
  br i1 %.not47, label %.critedge62, label %58

58:                                               ; preds = %55
  %59 = call i32 @strcmp(ptr noundef nonnull dereferenceable(1) %57, ptr noundef nonnull dereferenceable(5) @.str.19) #14
  %.not48 = icmp eq i32 %59, 0
  br i1 %.not48, label %88, label %60

60:                                               ; preds = %58
  %61 = call i32 @strcmp(ptr noundef nonnull dereferenceable(1) %57, ptr noundef nonnull dereferenceable(7) @.str.20) #14
  %.not49 = icmp eq i32 %61, 0
  br i1 %.not49, label %88, label %62

62:                                               ; preds = %60
  %63 = call i32 @strcmp(ptr noundef nonnull dereferenceable(1) %57, ptr noundef nonnull dereferenceable(5) @.str.21) #14
  %.not50 = icmp eq i32 %63, 0
  br i1 %.not50, label %88, label %64

64:                                               ; preds = %62
  %65 = call i32 @strcmp(ptr noundef nonnull dereferenceable(1) %57, ptr noundef nonnull dereferenceable(4) @.str.22) #14
  %.not51 = icmp eq i32 %65, 0
  br i1 %.not51, label %88, label %66

66:                                               ; preds = %64
  %67 = call i64 @strcspn(ptr noundef nonnull readonly %57, ptr noundef nonnull @.str.31) #14
  %68 = getelementptr inbounds nuw i8, ptr %57, i64 %67
  %69 = load i8, ptr %68, align 1, !tbaa !9
  %.not60 = icmp eq i8 %69, 0
  br i1 %.not60, label %70, label %85

70:                                               ; preds = %66
  call void @llvm.lifetime.start.p0(i64 120, ptr nonnull %4) #13
  call void @llvm.memcpy.p0.p0.i64(ptr noundef nonnull align 8 dereferenceable(120) %4, ptr noundef nonnull align 8 dereferenceable(120) @__const.run_shell.cmd, i64 120, i1 false)
  %71 = call ptr (ptr, ...) @xstrfmt(ptr noundef nonnull @.str.32, ptr noundef nonnull @.str.1, ptr noundef nonnull %57) #13
  %72 = load ptr, ptr %3, align 8, !tbaa !14
  store ptr %71, ptr %72, align 8, !tbaa !4
  %73 = load i16, ptr %18, align 8
  %74 = or i16 %73, 16
  store i16 %74, ptr %18, align 8
  call void @strvec_pushv(ptr noundef nonnull %4, ptr noundef nonnull %72) #13
  %75 = call i32 @run_command(ptr noundef nonnull %4) #13
  %76 = icmp eq i32 %75, -1
  br i1 %76, label %77, label %84

77:                                               ; preds = %70
  %78 = tail call ptr @__errno_location() #18
  %79 = load i32, ptr %78, align 4, !tbaa !19
  %80 = icmp eq i32 %79, 2
  br i1 %80, label %81, label %84

81:                                               ; preds = %77
  %82 = load ptr, ptr @stderr, align 8, !tbaa !17
  %83 = call i32 (ptr, ptr, ...) @fprintf(ptr noundef %82, ptr noundef nonnull @.str.23, ptr noundef nonnull %57) #17
  br label %84

84:                                               ; preds = %81, %77, %70
  call void @free(ptr noundef %71) #13
  call void @llvm.lifetime.end.p0(i64 120, ptr nonnull %4) #13
  br label %.critedge62

85:                                               ; preds = %66
  %86 = load ptr, ptr @stderr, align 8, !tbaa !17
  %87 = call i32 (ptr, ptr, ...) @fprintf(ptr noundef %86, ptr noundef nonnull @.str.24, ptr noundef nonnull %57) #17
  br label %.critedge62

88:                                               ; preds = %58, %60, %62, %64
  call void @free(ptr noundef nonnull %56) #13
  call void @free(ptr noundef %49) #13
  br label %89, !llvm.loop !21

89:                                               ; preds = %88, %.thread
  call void @free(ptr noundef %25) #13
  call void @llvm.lifetime.end.p0(i64 8, ptr nonnull %3) #13
  call void @llvm.lifetime.end.p0(i64 120, ptr nonnull %1) #13
  ret void
}